target datalayout = "e-m:e-p270:32:32-p271:32:32-p272:64:64-i64:64-i128:128-f80:128-n8:16:32:64-S128"
target triple = "x86_64-pc-linux-gnu"

%struct.LZ4F_CustomMem = type { ptr, ptr, ptr, ptr }
%struct.LZ4F_frameInfo_t = type { i32, i32, i32, i32, i64, i32, i32 }
%struct.XXH32_state_s = type { i32, i32, i32, i32, i32, i32, [4 x i32], i32, i32 }
%struct.LZ4F_dctx_s = type { %struct.LZ4F_CustomMem, %struct.LZ4F_frameInfo_t, i32, i32, i64, i64, i64, ptr, i64, i64, ptr, ptr, i64, ptr, i64, i64, %struct.XXH32_state_s, %struct.XXH32_state_s, i32, [19 x i8] }

; Function Attrs: nounwind uwtable
define void @LZ4F_resetDecompressionContext(ptr noundef %0) #0 {
  %2 = alloca ptr, align 8
  store ptr %0, ptr %2, align 8, !tbaa !75
  %3 = load ptr, ptr %2, align 8, !tbaa !75
  %4 = getelementptr inbounds nuw %struct.LZ4F_dctx_s, ptr %3, i32 0, i32 3
  store i32 0, ptr %4, align 4, !tbaa !81
  %5 = load ptr, ptr %2, align 8, !tbaa !75
  %6 = getelementptr inbounds nuw %struct.LZ4F_dctx_s, ptr %5, i32 0, i32 11
  store ptr null, ptr %6, align 8, !tbaa !84
  %7 = load ptr, ptr %2, align 8, !tbaa !75
  %8 = getelementptr inbounds nuw %struct.LZ4F_dctx_s, ptr %7, i32 0, i32 12
  store i64 0, ptr %8, align 8, !tbaa !85
  %9 = load ptr, ptr %2, align 8, !tbaa !75
  %10 = getelementptr inbounds nuw %struct.LZ4F_dctx_s, ptr %9, i32 0, i32 18
  store i32 0, ptr %10, align 8, !tbaa !86
  %11 = load ptr, ptr %2, align 8, !tbaa !75
  %12 = getelementptr inbounds nuw %struct.LZ4F_dctx_s, ptr %11, i32 0, i32 4
  store i64 0, ptr %12, align 8, !tbaa !87
  ret void
}