; Function Attrs: mustprogress nofree norecurse nosync nounwind willreturn memory(argmem: write) uwtable
define void @LZ4F_resetDecompressionContext(ptr noundef writeonly captures(none) initializes((68, 80), (128, 144), (264, 268)) %0) local_unnamed_addr #8 {
  %2 = getelementptr inbounds nuw i8, ptr %0, i64 68
  store i32 0, ptr %2, align 4, !tbaa !72
  %3 = getelementptr inbounds nuw i8, ptr %0, i64 128
  %4 = getelementptr inbounds nuw i8, ptr %0, i64 264
  store i32 0, ptr %4, align 8, !tbaa !75
  %5 = getelementptr inbounds nuw i8, ptr %0, i64 72
  store i64 0, ptr %5, align 8, !tbaa !76
  tail call void @llvm.memset.p0.i64(ptr noundef nonnull align 8 dereferenceable(16) %3, i8 0, i64 16, i1 false)
  ret void
}